target datalayout = "e-m:e-p270:32:32-p271:32:32-p272:64:64-i64:64-i128:128-f80:128-n8:16:32:64-S128"
target triple = "x86_64-pc-linux-gnu"

%struct.H5A_dense_bt2_name_rec_t = type { %union.H5O_fheap_id_t, i8, i32, i32 }
%union.H5O_fheap_id_t = type { i64 }

@H5A_init_g = external global i8, align 1
@H5_libterm_g = external global i8, align 1

; Function Attrs: nounwind uwtable
define internal i32 @H5A__dense_btree2_name_encode(ptr noundef %0, ptr noundef %1, ptr noundef %2) #0 {
  %4 = alloca ptr, align 8
  %5 = alloca ptr, align 8
  %6 = alloca ptr, align 8
  %7 = alloca ptr, align 8
  store ptr %0, ptr %4, align 8, !tbaa !52
  store ptr %1, ptr %5, align 8, !tbaa !3
  store ptr %2, ptr %6, align 8, !tbaa !3
  call void @llvm.lifetime.start.p0(i64 8, ptr %7) #7
  %8 = load ptr, ptr %5, align 8, !tbaa !3
  store ptr %8, ptr %7, align 8, !tbaa !9
  %9 = load i8, ptr @H5A_init_g, align 1, !tbaa !11, !range !13, !noundef !14
  %10 = trunc i8 %9 to i1
  br i1 %10, label %15, label %11

11:                                               ; preds = %3
  %12 = load i8, ptr @H5_libterm_g, align 1, !tbaa !11, !range !13, !noundef !14
  %13 = trunc i8 %12 to i1
  %14 = xor i1 %13, true
  br label %15

15:                                               ; preds = %11, %3
  %16 = phi i1 [ true, %3 ], [ %14, %11 ]
  %17 = xor i1 %16, true
  %18 = xor i1 %17, true
  %19 = zext i1 %18 to i32
  %20 = sext i32 %19 to i64
  %21 = call i64 @llvm.expect.i64(i64 %20, i64 1)
  %22 = icmp ne i64 %21, 0
  br i1 %22, label %23, label %111

23:                                               ; preds = %15
  %24 = load ptr, ptr %4, align 8, !tbaa !52
  %25 = load ptr, ptr %7, align 8, !tbaa !9
  %26 = getelementptr inbounds nuw %struct.H5A_dense_bt2_name_rec_t, ptr %25, i32 0, i32 0
  %27 = getelementptr inbounds [8 x i8], ptr %26, i64 0, i64 0
  call void @llvm.memcpy.p0.p0.i64(ptr align 1 %24, ptr align 8 %27, i64 8, i1 false)
  %28 = load ptr, ptr %4, align 8, !tbaa !52
  %29 = getelementptr inbounds i8, ptr %28, i64 8
  store ptr %29, ptr %4, align 8, !tbaa !52
  %30 = load ptr, ptr %7, align 8, !tbaa !9
  %31 = getelementptr inbounds nuw %struct.H5A_dense_bt2_name_rec_t, ptr %30, i32 0, i32 1
  %32 = load i8, ptr %31, align 8, !tbaa !24
  %33 = load ptr, ptr %4, align 8, !tbaa !52
  %34 = getelementptr inbounds nuw i8, ptr %33, i32 1
  store ptr %34, ptr %4, align 8, !tbaa !52
  store i8 %32, ptr %33, align 1, !tbaa !16
  br label %35

35:                                               ; preds = %23
  %36 = load ptr, ptr %7, align 8, !tbaa !9
  %37 = getelementptr inbounds nuw %struct.H5A_dense_bt2_name_rec_t, ptr %36, i32 0, i32 2
  %38 = load i32, ptr %37, align 4, !tbaa !27
  %39 = and i32 %38, 255
  %40 = trunc i32 %39 to i8
  %41 = load ptr, ptr %4, align 8, !tbaa !52
  store i8 %40, ptr %41, align 1, !tbaa !16
  %42 = load ptr, ptr %4, align 8, !tbaa !52
  %43 = getelementptr inbounds nuw i8, ptr %42, i32 1
  store ptr %43, ptr %4, align 8, !tbaa !52
  %44 = load ptr, ptr %7, align 8, !tbaa !9
  %45 = getelementptr inbounds nuw %struct.H5A_dense_bt2_name_rec_t, ptr %44, i32 0, i32 2
  %46 = load i32, ptr %45, align 4, !tbaa !27
  %47 = lshr i32 %46, 8
  %48 = and i32 %47, 255
  %49 = trunc i32 %48 to i8
  %50 = load ptr, ptr %4, align 8, !tbaa !52
  store i8 %49, ptr %50, align 1, !tbaa !16
  %51 = load ptr, ptr %4, align 8, !tbaa !52
  %52 = getelementptr inbounds nuw i8, ptr %51, i32 1
  store ptr %52, ptr %4, align 8, !tbaa !52
  %53 = load ptr, ptr %7, align 8, !tbaa !9
  %54 = getelementptr inbounds nuw %struct.H5A_dense_bt2_name_rec_t, ptr %53, i32 0, i32 2
  %55 = load i32, ptr %54, align 4, !tbaa !27
  %56 = lshr i32 %55, 16
  %57 = and i32 %56, 255
  %58 = trunc i32 %57 to i8
  %59 = load ptr, ptr %4, align 8, !tbaa !52
  store i8 %58, ptr %59, align 1, !tbaa !16
  %60 = load ptr, ptr %4, align 8, !tbaa !52
  %61 = getelementptr inbounds nuw i8, ptr %60, i32 1
  store ptr %61, ptr %4, align 8, !tbaa !52
  %62 = load ptr, ptr %7, align 8, !tbaa !9
  %63 = getelementptr inbounds nuw %struct.H5A_dense_bt2_name_rec_t, ptr %62, i32 0, i32 2
  %64 = load i32, ptr %63, align 4, !tbaa !27
  %65 = lshr i32 %64, 24
  %66 = and i32 %65, 255
  %67 = trunc i32 %66 to i8
  %68 = load ptr, ptr %4, align 8, !tbaa !52
  store i8 %67, ptr %68, align 1, !tbaa !16
  %69 = load ptr, ptr %4, align 8, !tbaa !52
  %70 = getelementptr inbounds nuw i8, ptr %69, i32 1
  store ptr %70, ptr %4, align 8, !tbaa !52
  br label %71

71:                                               ; preds = %35
  br label %72

72:                                               ; preds = %71
  br label %73

73:                                               ; preds = %72
  %74 = load ptr, ptr %7, align 8, !tbaa !9
  %75 = getelementptr inbounds nuw %struct.H5A_dense_bt2_name_rec_t, ptr %74, i32 0, i32 3
  %76 = load i32, ptr %75, align 8, !tbaa !29
  %77 = and i32 %76, 255
  %78 = trunc i32 %77 to i8
  %79 = load ptr, ptr %4, align 8, !tbaa !52
  store i8 %78, ptr %79, align 1, !tbaa !16
  %80 = load ptr, ptr %4, align 8, !tbaa !52
  %81 = getelementptr inbounds nuw i8, ptr %80, i32 1
  store ptr %81, ptr %4, align 8, !tbaa !52
  %82 = load ptr, ptr %7, align 8, !tbaa !9
  %83 = getelementptr inbounds nuw %struct.H5A_dense_bt2_name_rec_t, ptr %82, i32 0, i32 3
  %84 = load i32, ptr %83, align 8, !tbaa !29
  %85 = lshr i32 %84, 8
  %86 = and i32 %85, 255
  %87 = trunc i32 %86 to i8
  %88 = load ptr, ptr %4, align 8, !tbaa !52
  store i8 %87, ptr %88, align 1, !tbaa !16
  %89 = load ptr, ptr %4, align 8, !tbaa !52
  %90 = getelementptr inbounds nuw i8, ptr %89, i32 1
  store ptr %90, ptr %4, align 8, !tbaa !52
  %91 = load ptr, ptr %7, align 8, !tbaa !9
  %92 = getelementptr inbounds nuw %struct.H5A_dense_bt2_name_rec_t, ptr %91, i32 0, i32 3
  %93 = load i32, ptr %92, align 8, !tbaa !29
  %94 = lshr i32 %93, 16
  %95 = and i32 %94, 255
  %96 = trunc i32 %95 to i8
  %97 = load ptr, ptr %4, align 8, !tbaa !52
  store i8 %96, ptr %97, align 1, !tbaa !16
  %98 = load ptr, ptr %4, align 8, !tbaa !52
  %99 = getelementptr inbounds nuw i8, ptr %98, i32 1
  store ptr %99, ptr %4, align 8, !tbaa !52
  %100 = load ptr, ptr %7, align 8, !tbaa !9
  %101 = getelementptr inbounds nuw %struct.H5A_dense_bt2_name_rec_t, ptr %100, i32 0, i32 3
  %102 = load i32, ptr %101, align 8, !tbaa !29
  %103 = lshr i32 %102, 24
  %104 = and i32 %103, 255
  %105 = trunc i32 %104 to i8
  %106 = load ptr, ptr %4, align 8, !tbaa !52
  store i8 %105, ptr %106, align 1, !tbaa !16
  %107 = load ptr, ptr %4, align 8, !tbaa !52
  %108 = getelementptr inbounds nuw i8, ptr %107, i32 1
  store ptr %108, ptr %4, align 8, !tbaa !52
  br label %109

109:                                              ; preds = %73
  br label %110

110:                                              ; preds = %109
  br label %111

111:                                              ; preds = %110, %15
  call void @llvm.lifetime.end.p0(i64 8, ptr %7) #7
  ret i32 0
}