; Function Attrs: mustprogress nofree norecurse nosync nounwind willreturn memory(read, argmem: readwrite, inaccessiblemem: none) uwtable
define internal noundef i32 @H5A__dense_btree2_name_encode(ptr noundef writeonly captures(none) %0, ptr noundef readonly captures(none) %1, ptr readnone captures(none) %2) #0 {
  %4 = load i8, ptr @H5A_init_g, align 1, !tbaa !3, !range !7, !noundef !8
  %5 = trunc nuw i8 %4 to i1
  %6 = load i8, ptr @H5_libterm_g, align 1, !range !7
  %7 = trunc nuw i8 %6 to i1
  %8 = xor i1 %7, true
  %9 = select i1 %5, i1 true, i1 %8
  br i1 %9, label %10, label %47, !prof !9

10:                                               ; preds = %3
  %11 = load i64, ptr %1, align 8
  store i64 %11, ptr %0, align 1
  %12 = getelementptr inbounds nuw i8, ptr %0, i64 8
  %13 = getelementptr inbounds nuw i8, ptr %1, i64 8
  %14 = load i8, ptr %13, align 8, !tbaa !19
  %15 = getelementptr inbounds nuw i8, ptr %0, i64 9
  store i8 %14, ptr %12, align 1, !tbaa !10
  %16 = getelementptr inbounds nuw i8, ptr %1, i64 12
  %17 = load i32, ptr %16, align 4, !tbaa !22
  %18 = trunc i32 %17 to i8
  store i8 %18, ptr %15, align 1, !tbaa !10
  %19 = getelementptr inbounds nuw i8, ptr %0, i64 10
  %20 = load i32, ptr %16, align 4, !tbaa !22
  %21 = lshr i32 %20, 8
  %22 = trunc i32 %21 to i8
  store i8 %22, ptr %19, align 1, !tbaa !10
  %23 = getelementptr inbounds nuw i8, ptr %0, i64 11
  %24 = load i32, ptr %16, align 4, !tbaa !22
  %25 = lshr i32 %24, 16
  %26 = trunc i32 %25 to i8
  store i8 %26, ptr %23, align 1, !tbaa !10
  %27 = getelementptr inbounds nuw i8, ptr %0, i64 12
  %28 = load i32, ptr %16, align 4, !tbaa !22
  %29 = lshr i32 %28, 24
  %30 = trunc nuw i32 %29 to i8
  store i8 %30, ptr %27, align 1, !tbaa !10
  %31 = getelementptr inbounds nuw i8, ptr %0, i64 13
  %32 = getelementptr inbounds nuw i8, ptr %1, i64 16
  %33 = load i32, ptr %32, align 8, !tbaa !24
  %34 = trunc i32 %33 to i8
  store i8 %34, ptr %31, align 1, !tbaa !10
  %35 = getelementptr inbounds nuw i8, ptr %0, i64 14
  %36 = load i32, ptr %32, align 8, !tbaa !24
  %37 = lshr i32 %36, 8
  %38 = trunc i32 %37 to i8
  store i8 %38, ptr %35, align 1, !tbaa !10
  %39 = getelementptr inbounds nuw i8, ptr %0, i64 15
  %40 = load i32, ptr %32, align 8, !tbaa !24
  %41 = lshr i32 %40, 16
  %42 = trunc i32 %41 to i8
  store i8 %42, ptr %39, align 1, !tbaa !10
  %43 = getelementptr inbounds nuw i8, ptr %0, i64 16
  %44 = load i32, ptr %32, align 8, !tbaa !24
  %45 = lshr i32 %44, 24
  %46 = trunc nuw i32 %45 to i8
  store i8 %46, ptr %43, align 1, !tbaa !10
  br label %47

47:                                               ; preds = %10, %3
  ret i32 0
}